; Function Attrs: mustprogress nounwind uwtable
define void @_ZN4LIEF5dwarf4TypeD2Ev(ptr noundef nonnull align 8 captures(none) dereferenceable(24) initializes((0, 8)) %0) unnamed_addr #3 align 2 {
  store ptr getelementptr inbounds nuw inrange(-16, 16) (i8, ptr @_ZTVN4LIEF5dwarf4TypeE, i64 16), ptr %0, align 8, !tbaa !32
  %2 = getelementptr inbounds nuw i8, ptr %0, i64 8
  %3 = getelementptr inbounds nuw i8, ptr %0, i64 16
  %4 = load i8, ptr %3, align 8, !tbaa !105, !range !106, !noundef !107
  %5 = trunc nuw i8 %4 to i1
  br i1 %5, label %6, label %_ZN4LIEF7details12canbe_uniqueINS_5dwarf7details4TypeEED2Ev.exit

6:                                                ; preds = %1
  %7 = load ptr, ptr %2, align 8, !tbaa !103
  %.not.i.i = icmp eq ptr %7, null
  br i1 %.not.i.i, label %9, label %8

8:                                                ; preds = %6
  tail call void @_ZdlPvm(ptr noundef nonnull %7, i64 noundef 1) #24
  br label %9

9:                                                ; preds = %8, %6
  store ptr null, ptr %2, align 8, !tbaa !103
  br label %_ZN4LIEF7details12canbe_uniqueINS_5dwarf7details4TypeEED2Ev.exit

_ZN4LIEF7details12canbe_uniqueINS_5dwarf7details4TypeEED2Ev.exit: ; preds = %1, %9
  ret void
}